target datalayout = "e-m:e-p270:32:32-p271:32:32-p272:64:64-i64:64-i128:128-f80:128-n8:16:32:64-S128"
target triple = "x86_64-pc-linux-gnu"

%struct.newhope_poly_st = type { [1024 x i16] }

; Function Attrs: nounwind uwtable
define hidden void @newhope_poly_tobytes(ptr noundef %0, ptr noundef %1) #0 {
  %3 = alloca ptr, align 8
  %4 = alloca ptr, align 8
  %5 = alloca i32, align 4
  %6 = alloca i16, align 2
  %7 = alloca i16, align 2
  %8 = alloca i16, align 2
  %9 = alloca i16, align 2
  %10 = alloca i16, align 2
  %11 = alloca i16, align 2
  store ptr %0, ptr %3, align 8, !tbaa !11
  store ptr %1, ptr %4, align 8, !tbaa !6
  call void @llvm.lifetime.start.p0(i64 4, ptr %5) #5
  call void @llvm.lifetime.start.p0(i64 2, ptr %6) #5
  call void @llvm.lifetime.start.p0(i64 2, ptr %7) #5
  call void @llvm.lifetime.start.p0(i64 2, ptr %8) #5
  call void @llvm.lifetime.start.p0(i64 2, ptr %9) #5
  call void @llvm.lifetime.start.p0(i64 2, ptr %10) #5
  call void @llvm.lifetime.start.p0(i64 2, ptr %11) #5
  store i32 0, ptr %5, align 4, !tbaa !13
  br label %12

12:                                               ; preds = %218, %2
  %13 = load i32, ptr %5, align 4, !tbaa !13
  %14 = icmp slt i32 %13, 256
  br i1 %14, label %15, label %221

15:                                               ; preds = %12
  %16 = load ptr, ptr %4, align 8, !tbaa !6
  %17 = getelementptr inbounds nuw %struct.newhope_poly_st, ptr %16, i32 0, i32 0
  %18 = load i32, ptr %5, align 4, !tbaa !13
  %19 = mul nsw i32 4, %18
  %20 = add nsw i32 %19, 0
  %21 = sext i32 %20 to i64
  %22 = getelementptr inbounds [1024 x i16], ptr %17, i64 0, i64 %21
  %23 = load i16, ptr %22, align 2, !tbaa !16
  %24 = call zeroext i16 @newhope_barrett_reduce(i16 noundef zeroext %23)
  store i16 %24, ptr %6, align 2, !tbaa !16
  %25 = load ptr, ptr %4, align 8, !tbaa !6
  %26 = getelementptr inbounds nuw %struct.newhope_poly_st, ptr %25, i32 0, i32 0
  %27 = load i32, ptr %5, align 4, !tbaa !13
  %28 = mul nsw i32 4, %27
  %29 = add nsw i32 %28, 1
  %30 = sext i32 %29 to i64
  %31 = getelementptr inbounds [1024 x i16], ptr %26, i64 0, i64 %30
  %32 = load i16, ptr %31, align 2, !tbaa !16
  %33 = call zeroext i16 @newhope_barrett_reduce(i16 noundef zeroext %32)
  store i16 %33, ptr %7, align 2, !tbaa !16
  %34 = load ptr, ptr %4, align 8, !tbaa !6
  %35 = getelementptr inbounds nuw %struct.newhope_poly_st, ptr %34, i32 0, i32 0
  %36 = load i32, ptr %5, align 4, !tbaa !13
  %37 = mul nsw i32 4, %36
  %38 = add nsw i32 %37, 2
  %39 = sext i32 %38 to i64
  %40 = getelementptr inbounds [1024 x i16], ptr %35, i64 0, i64 %39
  %41 = load i16, ptr %40, align 2, !tbaa !16
  %42 = call zeroext i16 @newhope_barrett_reduce(i16 noundef zeroext %41)
  store i16 %42, ptr %8, align 2, !tbaa !16
  %43 = load ptr, ptr %4, align 8, !tbaa !6
  %44 = getelementptr inbounds nuw %struct.newhope_poly_st, ptr %43, i32 0, i32 0
  %45 = load i32, ptr %5, align 4, !tbaa !13
  %46 = mul nsw i32 4, %45
  %47 = add nsw i32 %46, 3
  %48 = sext i32 %47 to i64
  %49 = getelementptr inbounds [1024 x i16], ptr %44, i64 0, i64 %48
  %50 = load i16, ptr %49, align 2, !tbaa !16
  %51 = call zeroext i16 @newhope_barrett_reduce(i16 noundef zeroext %50)
  store i16 %51, ptr %9, align 2, !tbaa !16
  %52 = load i16, ptr %6, align 2, !tbaa !16
  %53 = zext i16 %52 to i32
  %54 = sub nsw i32 %53, 12289
  %55 = trunc i32 %54 to i16
  store i16 %55, ptr %10, align 2, !tbaa !16
  %56 = load i16, ptr %10, align 2, !tbaa !16
  store i16 %56, ptr %11, align 2, !tbaa !16
  %57 = load i16, ptr %11, align 2, !tbaa !16
  %58 = sext i16 %57 to i32
  %59 = ashr i32 %58, 15
  %60 = trunc i32 %59 to i16
  store i16 %60, ptr %11, align 2, !tbaa !16
  %61 = load i16, ptr %10, align 2, !tbaa !16
  %62 = zext i16 %61 to i32
  %63 = load i16, ptr %6, align 2, !tbaa !16
  %64 = zext i16 %63 to i32
  %65 = load i16, ptr %10, align 2, !tbaa !16
  %66 = zext i16 %65 to i32
  %67 = xor i32 %64, %66
  %68 = load i16, ptr %11, align 2, !tbaa !16
  %69 = sext i16 %68 to i32
  %70 = and i32 %67, %69
  %71 = xor i32 %62, %70
  %72 = trunc i32 %71 to i16
  store i16 %72, ptr %6, align 2, !tbaa !16
  %73 = load i16, ptr %7, align 2, !tbaa !16
  %74 = zext i16 %73 to i32
  %75 = sub nsw i32 %74, 12289
  %76 = trunc i32 %75 to i16
  store i16 %76, ptr %10, align 2, !tbaa !16
  %77 = load i16, ptr %10, align 2, !tbaa !16
  store i16 %77, ptr %11, align 2, !tbaa !16
  %78 = load i16, ptr %11, align 2, !tbaa !16
  %79 = sext i16 %78 to i32
  %80 = ashr i32 %79, 15
  %81 = trunc i32 %80 to i16
  store i16 %81, ptr %11, align 2, !tbaa !16
  %82 = load i16, ptr %10, align 2, !tbaa !16
  %83 = zext i16 %82 to i32
  %84 = load i16, ptr %7, align 2, !tbaa !16
  %85 = zext i16 %84 to i32
  %86 = load i16, ptr %10, align 2, !tbaa !16
  %87 = zext i16 %86 to i32
  %88 = xor i32 %85, %87
  %89 = load i16, ptr %11, align 2, !tbaa !16
  %90 = sext i16 %89 to i32
  %91 = and i32 %88, %90
  %92 = xor i32 %83, %91
  %93 = trunc i32 %92 to i16
  store i16 %93, ptr %7, align 2, !tbaa !16
  %94 = load i16, ptr %8, align 2, !tbaa !16
  %95 = zext i16 %94 to i32
  %96 = sub nsw i32 %95, 12289
  %97 = trunc i32 %96 to i16
  store i16 %97, ptr %10, align 2, !tbaa !16
  %98 = load i16, ptr %10, align 2, !tbaa !16
  store i16 %98, ptr %11, align 2, !tbaa !16
  %99 = load i16, ptr %11, align 2, !tbaa !16
  %100 = sext i16 %99 to i32
  %101 = ashr i32 %100, 15
  %102 = trunc i32 %101 to i16
  store i16 %102, ptr %11, align 2, !tbaa !16
  %103 = load i16, ptr %10, align 2, !tbaa !16
  %104 = zext i16 %103 to i32
  %105 = load i16, ptr %8, align 2, !tbaa !16
  %106 = zext i16 %105 to i32
  %107 = load i16, ptr %10, align 2, !tbaa !16
  %108 = zext i16 %107 to i32
  %109 = xor i32 %106, %108
  %110 = load i16, ptr %11, align 2, !tbaa !16
  %111 = sext i16 %110 to i32
  %112 = and i32 %109, %111
  %113 = xor i32 %104, %112
  %114 = trunc i32 %113 to i16
  store i16 %114, ptr %8, align 2, !tbaa !16
  %115 = load i16, ptr %9, align 2, !tbaa !16
  %116 = zext i16 %115 to i32
  %117 = sub nsw i32 %116, 12289
  %118 = trunc i32 %117 to i16
  store i16 %118, ptr %10, align 2, !tbaa !16
  %119 = load i16, ptr %10, align 2, !tbaa !16
  store i16 %119, ptr %11, align 2, !tbaa !16
  %120 = load i16, ptr %11, align 2, !tbaa !16
  %121 = sext i16 %120 to i32
  %122 = ashr i32 %121, 15
  %123 = trunc i32 %122 to i16
  store i16 %123, ptr %11, align 2, !tbaa !16
  %124 = load i16, ptr %10, align 2, !tbaa !16
  %125 = zext i16 %124 to i32
  %126 = load i16, ptr %9, align 2, !tbaa !16
  %127 = zext i16 %126 to i32
  %128 = load i16, ptr %10, align 2, !tbaa !16
  %129 = zext i16 %128 to i32
  %130 = xor i32 %127, %129
  %131 = load i16, ptr %11, align 2, !tbaa !16
  %132 = sext i16 %131 to i32
  %133 = and i32 %130, %132
  %134 = xor i32 %125, %133
  %135 = trunc i32 %134 to i16
  store i16 %135, ptr %9, align 2, !tbaa !16
  %136 = load i16, ptr %6, align 2, !tbaa !16
  %137 = zext i16 %136 to i32
  %138 = and i32 %137, 255
  %139 = trunc i32 %138 to i8
  %140 = load ptr, ptr %3, align 8, !tbaa !11
  %141 = load i32, ptr %5, align 4, !tbaa !13
  %142 = mul nsw i32 7, %141
  %143 = add nsw i32 %142, 0
  %144 = sext i32 %143 to i64
  %145 = getelementptr inbounds i8, ptr %140, i64 %144
  store i8 %139, ptr %145, align 1, !tbaa !15
  %146 = load i16, ptr %6, align 2, !tbaa !16
  %147 = zext i16 %146 to i32
  %148 = ashr i32 %147, 8
  %149 = load i16, ptr %7, align 2, !tbaa !16
  %150 = zext i16 %149 to i32
  %151 = shl i32 %150, 6
  %152 = or i32 %148, %151
  %153 = trunc i32 %152 to i8
  %154 = load ptr, ptr %3, align 8, !tbaa !11
  %155 = load i32, ptr %5, align 4, !tbaa !13
  %156 = mul nsw i32 7, %155
  %157 = add nsw i32 %156, 1
  %158 = sext i32 %157 to i64
  %159 = getelementptr inbounds i8, ptr %154, i64 %158
  store i8 %153, ptr %159, align 1, !tbaa !15
  %160 = load i16, ptr %7, align 2, !tbaa !16
  %161 = zext i16 %160 to i32
  %162 = ashr i32 %161, 2
  %163 = trunc i32 %162 to i8
  %164 = load ptr, ptr %3, align 8, !tbaa !11
  %165 = load i32, ptr %5, align 4, !tbaa !13
  %166 = mul nsw i32 7, %165
  %167 = add nsw i32 %166, 2
  %168 = sext i32 %167 to i64
  %169 = getelementptr inbounds i8, ptr %164, i64 %168
  store i8 %163, ptr %169, align 1, !tbaa !15
  %170 = load i16, ptr %7, align 2, !tbaa !16
  %171 = zext i16 %170 to i32
  %172 = ashr i32 %171, 10
  %173 = load i16, ptr %8, align 2, !tbaa !16
  %174 = zext i16 %173 to i32
  %175 = shl i32 %174, 4
  %176 = or i32 %172, %175
  %177 = trunc i32 %176 to i8
  %178 = load ptr, ptr %3, align 8, !tbaa !11
  %179 = load i32, ptr %5, align 4, !tbaa !13
  %180 = mul nsw i32 7, %179
  %181 = add nsw i32 %180, 3
  %182 = sext i32 %181 to i64
  %183 = getelementptr inbounds i8, ptr %178, i64 %182
  store i8 %177, ptr %183, align 1, !tbaa !15
  %184 = load i16, ptr %8, align 2, !tbaa !16
  %185 = zext i16 %184 to i32
  %186 = ashr i32 %185, 4
  %187 = trunc i32 %186 to i8
  %188 = load ptr, ptr %3, align 8, !tbaa !11
  %189 = load i32, ptr %5, align 4, !tbaa !13
  %190 = mul nsw i32 7, %189
  %191 = add nsw i32 %190, 4
  %192 = sext i32 %191 to i64
  %193 = getelementptr inbounds i8, ptr %188, i64 %192
  store i8 %187, ptr %193, align 1, !tbaa !15
  %194 = load i16, ptr %8, align 2, !tbaa !16
  %195 = zext i16 %194 to i32
  %196 = ashr i32 %195, 12
  %197 = load i16, ptr %9, align 2, !tbaa !16
  %198 = zext i16 %197 to i32
  %199 = shl i32 %198, 2
  %200 = or i32 %196, %199
  %201 = trunc i32 %200 to i8
  %202 = load ptr, ptr %3, align 8, !tbaa !11
  %203 = load i32, ptr %5, align 4, !tbaa !13
  %204 = mul nsw i32 7, %203
  %205 = add nsw i32 %204, 5
  %206 = sext i32 %205 to i64
  %207 = getelementptr inbounds i8, ptr %202, i64 %206
  store i8 %201, ptr %207, align 1, !tbaa !15
  %208 = load i16, ptr %9, align 2, !tbaa !16
  %209 = zext i16 %208 to i32
  %210 = ashr i32 %209, 6
  %211 = trunc i32 %210 to i8
  %212 = load ptr, ptr %3, align 8, !tbaa !11
  %213 = load i32, ptr %5, align 4, !tbaa !13
  %214 = mul nsw i32 7, %213
  %215 = add nsw i32 %214, 6
  %216 = sext i32 %215 to i64
  %217 = getelementptr inbounds i8, ptr %212, i64 %216
  store i8 %211, ptr %217, align 1, !tbaa !15
  br label %218

218:                                              ; preds = %15
  %219 = load i32, ptr %5, align 4, !tbaa !13
  %220 = add nsw i32 %219, 1
  store i32 %220, ptr %5, align 4, !tbaa !13
  br label %12, !llvm.loop !20

221:                                              ; preds = %12
  call void @llvm.lifetime.end.p0(i64 2, ptr %11) #5
  call void @llvm.lifetime.end.p0(i64 2, ptr %10) #5
  call void @llvm.lifetime.end.p0(i64 2, ptr %9) #5
  call void @llvm.lifetime.end.p0(i64 2, ptr %8) #5
  call void @llvm.lifetime.end.p0(i64 2, ptr %7) #5
  call void @llvm.lifetime.end.p0(i64 2, ptr %6) #5
  call void @llvm.lifetime.end.p0(i64 4, ptr %5) #5
  ret void
}