; Function Attrs: nounwind uwtable
define hidden void @newhope_poly_tobytes(ptr noundef writeonly captures(none) %0, ptr noundef readonly captures(none) %1) local_unnamed_addr #2 {
  br label %3

3:                                                ; preds = %2, %3
  %indvars.iv = phi i64 [ 0, %2 ], [ %indvars.iv.next, %3 ]
  %4 = shl nuw nsw i64 %indvars.iv, 2
  %5 = getelementptr inbounds nuw [1024 x i16], ptr %1, i64 0, i64 %4
  %6 = load i16, ptr %5, align 2, !tbaa !9
  %7 = tail call zeroext i16 @newhope_barrett_reduce(i16 noundef zeroext %6) #6
  %8 = or disjoint i64 %4, 1
  %9 = getelementptr inbounds nuw [1024 x i16], ptr %1, i64 0, i64 %8
  %10 = load i16, ptr %9, align 2, !tbaa !9
  %11 = tail call zeroext i16 @newhope_barrett_reduce(i16 noundef zeroext %10) #6
  %12 = or disjoint i64 %4, 2
  %13 = getelementptr inbounds nuw [1024 x i16], ptr %1, i64 0, i64 %12
  %14 = load i16, ptr %13, align 2, !tbaa !9
  %15 = tail call zeroext i16 @newhope_barrett_reduce(i16 noundef zeroext %14) #6
  %16 = or disjoint i64 %4, 3
  %17 = getelementptr inbounds nuw [1024 x i16], ptr %1, i64 0, i64 %16
  %18 = load i16, ptr %17, align 2, !tbaa !9
  %19 = tail call zeroext i16 @newhope_barrett_reduce(i16 noundef zeroext %18) #6
  %20 = add i16 %7, -12289
  %isneg = icmp slt i16 %20, 0
  %21 = select i1 %isneg, i16 %7, i16 %20
  %22 = add i16 %11, -12289
  %isneg61 = icmp slt i16 %22, 0
  %23 = select i1 %isneg61, i16 %11, i16 %22
  %24 = add i16 %15, -12289
  %isneg62 = icmp slt i16 %24, 0
  %25 = select i1 %isneg62, i16 %15, i16 %24
  %26 = add i16 %19, -12289
  %isneg63 = icmp slt i16 %26, 0
  %27 = select i1 %isneg63, i16 %19, i16 %26
  %28 = trunc i16 %21 to i8
  %29 = mul nuw nsw i64 %indvars.iv, 7
  %30 = getelementptr inbounds nuw i8, ptr %0, i64 %29
  store i8 %28, ptr %30, align 1, !tbaa !6
  %31 = lshr i16 %21, 8
  %32 = shl i16 %23, 6
  %33 = or i16 %32, %31
  %34 = trunc i16 %33 to i8
  %35 = getelementptr inbounds nuw i8, ptr %30, i64 1
  store i8 %34, ptr %35, align 1, !tbaa !6
  %36 = lshr i16 %23, 2
  %37 = trunc i16 %36 to i8
  %38 = getelementptr inbounds nuw i8, ptr %30, i64 2
  store i8 %37, ptr %38, align 1, !tbaa !6
  %39 = lshr i16 %23, 10
  %40 = shl i16 %25, 4
  %41 = or i16 %40, %39
  %42 = trunc i16 %41 to i8
  %43 = getelementptr inbounds nuw i8, ptr %30, i64 3
  store i8 %42, ptr %43, align 1, !tbaa !6
  %44 = lshr i16 %25, 4
  %45 = trunc i16 %44 to i8
  %46 = getelementptr inbounds nuw i8, ptr %30, i64 4
  store i8 %45, ptr %46, align 1, !tbaa !6
  %47 = lshr i16 %25, 12
  %48 = shl i16 %27, 2
  %49 = or i16 %48, %47
  %50 = trunc i16 %49 to i8
  %51 = getelementptr inbounds nuw i8, ptr %30, i64 5
  store i8 %50, ptr %51, align 1, !tbaa !6
  %52 = lshr i16 %27, 6
  %53 = trunc i16 %52 to i8
  %54 = getelementptr inbounds nuw i8, ptr %30, i64 6
  store i8 %53, ptr %54, align 1, !tbaa !6
  %indvars.iv.next = add nuw nsw i64 %indvars.iv, 1
  %exitcond.not = icmp eq i64 %indvars.iv.next, 256
  br i1 %exitcond.not, label %55, label %3, !llvm.loop !13

55:                                               ; preds = %3
  ret void
}